target datalayout = "e-m:e-p270:32:32-p271:32:32-p272:64:64-i64:64-i128:128-f80:128-n8:16:32:64-S128"
target triple = "x86_64-pc-linux-gnu"

@.str = private unnamed_addr constant [1 x i8] zeroinitializer, align 1
@GLES2_Fragment_Include_Undef_Precision = internal constant [76 x i8] c"#define mediump\0A#define highp\0A#define lowp\0A#define SDL_TEXCOORD_PRECISION\0A\0A\00", align 16
@GLES2_Fragment_Include_Best_Texture_Precision = internal constant [151 x i8] c"#ifdef GL_FRAGMENT_PRECISION_HIGH\0A#define SDL_TEXCOORD_PRECISION highp\0A#else\0A#define SDL_TEXCOORD_PRECISION mediump\0A#endif\0A\0Aprecision mediump float;\0A\0A\00", align 16
@GLES2_Fragment_Include_Medium_Texture_Precision = internal constant [66 x i8] c"#define SDL_TEXCOORD_PRECISION mediump\0Aprecision mediump float;\0A\0A\00", align 16
@GLES2_Fragment_Include_High_Texture_Precision = internal constant [64 x i8] c"#define SDL_TEXCOORD_PRECISION highp\0Aprecision mediump float;\0A\0A\00", align 16

; Function Attrs: nounwind uwtable
define hidden ptr @GLES2_GetShaderInclude(i32 noundef %0) #0 {
  %2 = alloca ptr, align 8
  %3 = alloca i32, align 4
  store i32 %0, ptr %3, align 4
  %4 = load i32, ptr %3, align 4
  switch i32 %4, label %9 [
    i32 4, label %5
    i32 1, label %6
    i32 2, label %7
    i32 3, label %8
  ]

5:                                                ; preds = %1
  store ptr @GLES2_Fragment_Include_Undef_Precision, ptr %2, align 8
  br label %10

6:                                                ; preds = %1
  store ptr @GLES2_Fragment_Include_Best_Texture_Precision, ptr %2, align 8
  br label %10

7:                                                ; preds = %1
  store ptr @GLES2_Fragment_Include_Medium_Texture_Precision, ptr %2, align 8
  br label %10

8:                                                ; preds = %1
  store ptr @GLES2_Fragment_Include_High_Texture_Precision, ptr %2, align 8
  br label %10

9:                                                ; preds = %1
  store ptr @.str, ptr %2, align 8
  br label %10

10:                                               ; preds = %9, %8, %7, %6, %5
  %11 = load ptr, ptr %2, align 8
  ret ptr %11
}